target datalayout = "e-m:e-p270:32:32-p271:32:32-p272:64:64-i64:64-i128:128-f80:128-n8:16:32:64-S128"
target triple = "x86_64-pc-linux-gnu"

; Function Attrs: mustprogress nounwind uwtable
define internal noundef i32 @_ZL42stbtt__CompareUTF8toUTF16_bigendian_prefixPKhiS0_i(ptr noundef %0, i32 noundef %1, ptr noundef %2, i32 noundef %3) #1 {
  %5 = alloca i32, align 4
  %6 = alloca ptr, align 8
  %7 = alloca i32, align 4
  %8 = alloca ptr, align 8
  %9 = alloca i32, align 4
  %10 = alloca i32, align 4
  %11 = alloca i16, align 2
  %12 = alloca i32, align 4
  %13 = alloca i16, align 2
  store ptr %0, ptr %6, align 8
  store i32 %1, ptr %7, align 4
  store ptr %2, ptr %8, align 8
  store i32 %3, ptr %9, align 4
  store i32 0, ptr %10, align 4
  br label %14

14:                                               ; preds = %244, %4
  %15 = load i32, ptr %9, align 4
  %16 = icmp ne i32 %15, 0
  br i1 %16, label %17, label %249

17:                                               ; preds = %14
  %18 = load ptr, ptr %8, align 8
  %19 = getelementptr inbounds i8, ptr %18, i64 0
  %20 = load i8, ptr %19, align 1
  %21 = zext i8 %20 to i32
  %22 = mul nsw i32 %21, 256
  %23 = load ptr, ptr %8, align 8
  %24 = getelementptr inbounds i8, ptr %23, i64 1
  %25 = load i8, ptr %24, align 1
  %26 = zext i8 %25 to i32
  %27 = add nsw i32 %22, %26
  %28 = trunc i32 %27 to i16
  store i16 %28, ptr %11, align 2
  %29 = load i16, ptr %11, align 2
  %30 = zext i16 %29 to i32
  %31 = icmp slt i32 %30, 128
  br i1 %31, label %32, label %50

32:                                               ; preds = %17
  %33 = load i32, ptr %10, align 4
  %34 = load i32, ptr %7, align 4
  %35 = icmp sge i32 %33, %34
  br i1 %35, label %36, label %37

36:                                               ; preds = %32
  store i32 -1, ptr %5, align 4
  br label %251

37:                                               ; preds = %32
  %38 = load ptr, ptr %6, align 8
  %39 = load i32, ptr %10, align 4
  %40 = add nsw i32 %39, 1
  store i32 %40, ptr %10, align 4
  %41 = sext i32 %39 to i64
  %42 = getelementptr inbounds i8, ptr %38, i64 %41
  %43 = load i8, ptr %42, align 1
  %44 = zext i8 %43 to i32
  %45 = load i16, ptr %11, align 2
  %46 = zext i16 %45 to i32
  %47 = icmp ne i32 %44, %46
  br i1 %47, label %48, label %49

48:                                               ; preds = %37
  store i32 -1, ptr %5, align 4
  br label %251

49:                                               ; preds = %37
  br label %244

50:                                               ; preds = %17
  %51 = load i16, ptr %11, align 2
  %52 = zext i16 %51 to i32
  %53 = icmp slt i32 %52, 2048
  br i1 %53, label %54, label %89

54:                                               ; preds = %50
  %55 = load i32, ptr %10, align 4
  %56 = add nsw i32 %55, 1
  %57 = load i32, ptr %7, align 4
  %58 = icmp sge i32 %56, %57
  br i1 %58, label %59, label %60

59:                                               ; preds = %54
  store i32 -1, ptr %5, align 4
  br label %251

60:                                               ; preds = %54
  %61 = load ptr, ptr %6, align 8
  %62 = load i32, ptr %10, align 4
  %63 = add nsw i32 %62, 1
  store i32 %63, ptr %10, align 4
  %64 = sext i32 %62 to i64
  %65 = getelementptr inbounds i8, ptr %61, i64 %64
  %66 = load i8, ptr %65, align 1
  %67 = zext i8 %66 to i32
  %68 = load i16, ptr %11, align 2
  %69 = zext i16 %68 to i32
  %70 = ashr i32 %69, 6
  %71 = add nsw i32 192, %70
  %72 = icmp ne i32 %67, %71
  br i1 %72, label %73, label %74

73:                                               ; preds = %60
  store i32 -1, ptr %5, align 4
  br label %251

74:                                               ; preds = %60
  %75 = load ptr, ptr %6, align 8
  %76 = load i32, ptr %10, align 4
  %77 = add nsw i32 %76, 1
  store i32 %77, ptr %10, align 4
  %78 = sext i32 %76 to i64
  %79 = getelementptr inbounds i8, ptr %75, i64 %78
  %80 = load i8, ptr %79, align 1
  %81 = zext i8 %80 to i32
  %82 = load i16, ptr %11, align 2
  %83 = zext i16 %82 to i32
  %84 = and i32 %83, 63
  %85 = add nsw i32 128, %84
  %86 = icmp ne i32 %81, %85
  br i1 %86, label %87, label %88

87:                                               ; preds = %74
  store i32 -1, ptr %5, align 4
  br label %251

88:                                               ; preds = %74
  br label %243

89:                                               ; preds = %50
  %90 = load i16, ptr %11, align 2
  %91 = zext i16 %90 to i32
  %92 = icmp sge i32 %91, 55296
  br i1 %92, label %93, label %182

93:                                               ; preds = %89
  %94 = load i16, ptr %11, align 2
  %95 = zext i16 %94 to i32
  %96 = icmp slt i32 %95, 56320
  br i1 %96, label %97, label %182

97:                                               ; preds = %93
  %98 = load ptr, ptr %8, align 8
  %99 = getelementptr inbounds i8, ptr %98, i64 2
  %100 = load i8, ptr %99, align 1
  %101 = zext i8 %100 to i32
  %102 = mul nsw i32 %101, 256
  %103 = load ptr, ptr %8, align 8
  %104 = getelementptr inbounds i8, ptr %103, i64 3
  %105 = load i8, ptr %104, align 1
  %106 = zext i8 %105 to i32
  %107 = add nsw i32 %102, %106
  %108 = trunc i32 %107 to i16
  store i16 %108, ptr %13, align 2
  %109 = load i32, ptr %10, align 4
  %110 = add nsw i32 %109, 3
  %111 = load i32, ptr %7, align 4
  %112 = icmp sge i32 %110, %111
  br i1 %112, label %113, label %114

113:                                              ; preds = %97
  store i32 -1, ptr %5, align 4
  br label %251

114:                                              ; preds = %97
  %115 = load i16, ptr %11, align 2
  %116 = zext i16 %115 to i32
  %117 = sub nsw i32 %116, 55296
  %118 = shl i32 %117, 10
  %119 = load i16, ptr %13, align 2
  %120 = zext i16 %119 to i32
  %121 = sub nsw i32 %120, 56320
  %122 = add nsw i32 %118, %121
  %123 = add nsw i32 %122, 65536
  store i32 %123, ptr %12, align 4
  %124 = load ptr, ptr %6, align 8
  %125 = load i32, ptr %10, align 4
  %126 = add nsw i32 %125, 1
  store i32 %126, ptr %10, align 4
  %127 = sext i32 %125 to i64
  %128 = getelementptr inbounds i8, ptr %124, i64 %127
  %129 = load i8, ptr %128, align 1
  %130 = zext i8 %129 to i32
  %131 = load i32, ptr %12, align 4
  %132 = lshr i32 %131, 18
  %133 = add i32 240, %132
  %134 = icmp ne i32 %130, %133
  br i1 %134, label %135, label %136

135:                                              ; preds = %114
  store i32 -1, ptr %5, align 4
  br label %251

136:                                              ; preds = %114
  %137 = load ptr, ptr %6, align 8
  %138 = load i32, ptr %10, align 4
  %139 = add nsw i32 %138, 1
  store i32 %139, ptr %10, align 4
  %140 = sext i32 %138 to i64
  %141 = getelementptr inbounds i8, ptr %137, i64 %140
  %142 = load i8, ptr %141, align 1
  %143 = zext i8 %142 to i32
  %144 = load i32, ptr %12, align 4
  %145 = lshr i32 %144, 12
  %146 = and i32 %145, 63
  %147 = add i32 128, %146
  %148 = icmp ne i32 %143, %147
  br i1 %148, label %149, label %150

149:                                              ; preds = %136
  store i32 -1, ptr %5, align 4
  br label %251

150:                                              ; preds = %136
  %151 = load ptr, ptr %6, align 8
  %152 = load i32, ptr %10, align 4
  %153 = add nsw i32 %152, 1
  store i32 %153, ptr %10, align 4
  %154 = sext i32 %152 to i64
  %155 = getelementptr inbounds i8, ptr %151, i64 %154
  %156 = load i8, ptr %155, align 1
  %157 = zext i8 %156 to i32
  %158 = load i32, ptr %12, align 4
  %159 = lshr i32 %158, 6
  %160 = and i32 %159, 63
  %161 = add i32 128, %160
  %162 = icmp ne i32 %157, %161
  br i1 %162, label %163, label %164

163:                                              ; preds = %150
  store i32 -1, ptr %5, align 4
  br label %251

164:                                              ; preds = %150
  %165 = load ptr, ptr %6, align 8
  %166 = load i32, ptr %10, align 4
  %167 = add nsw i32 %166, 1
  store i32 %167, ptr %10, align 4
  %168 = sext i32 %166 to i64
  %169 = getelementptr inbounds i8, ptr %165, i64 %168
  %170 = load i8, ptr %169, align 1
  %171 = zext i8 %170 to i32
  %172 = load i32, ptr %12, align 4
  %173 = and i32 %172, 63
  %174 = add i32 128, %173
  %175 = icmp ne i32 %171, %174
  br i1 %175, label %176, label %177

176:                                              ; preds = %164
  store i32 -1, ptr %5, align 4
  br label %251

177:                                              ; preds = %164
  %178 = load ptr, ptr %8, align 8
  %179 = getelementptr inbounds i8, ptr %178, i64 2
  store ptr %179, ptr %8, align 8
  %180 = load i32, ptr %9, align 4
  %181 = sub nsw i32 %180, 2
  store i32 %181, ptr %9, align 4
  br label %242

182:                                              ; preds = %93, %89
  %183 = load i16, ptr %11, align 2
  %184 = zext i16 %183 to i32
  %185 = icmp sge i32 %184, 56320
  br i1 %185, label %186, label %191

186:                                              ; preds = %182
  %187 = load i16, ptr %11, align 2
  %188 = zext i16 %187 to i32
  %189 = icmp slt i32 %188, 57344
  br i1 %189, label %190, label %191

190:                                              ; preds = %186
  store i32 -1, ptr %5, align 4
  br label %251

191:                                              ; preds = %186, %182
  %192 = load i32, ptr %10, align 4
  %193 = add nsw i32 %192, 2
  %194 = load i32, ptr %7, align 4
  %195 = icmp sge i32 %193, %194
  br i1 %195, label %196, label %197

196:                                              ; preds = %191
  store i32 -1, ptr %5, align 4
  br label %251

197:                                              ; preds = %191
  %198 = load ptr, ptr %6, align 8
  %199 = load i32, ptr %10, align 4
  %200 = add nsw i32 %199, 1
  store i32 %200, ptr %10, align 4
  %201 = sext i32 %199 to i64
  %202 = getelementptr inbounds i8, ptr %198, i64 %201
  %203 = load i8, ptr %202, align 1
  %204 = zext i8 %203 to i32
  %205 = load i16, ptr %11, align 2
  %206 = zext i16 %205 to i32
  %207 = ashr i32 %206, 12
  %208 = add nsw i32 224, %207
  %209 = icmp ne i32 %204, %208
  br i1 %209, label %210, label %211

210:                                              ; preds = %197
  store i32 -1, ptr %5, align 4
  br label %251

211:                                              ; preds = %197
  %212 = load ptr, ptr %6, align 8
  %213 = load i32, ptr %10, align 4
  %214 = add nsw i32 %213, 1
  store i32 %214, ptr %10, align 4
  %215 = sext i32 %213 to i64
  %216 = getelementptr inbounds i8, ptr %212, i64 %215
  %217 = load i8, ptr %216, align 1
  %218 = zext i8 %217 to i32
  %219 = load i16, ptr %11, align 2
  %220 = zext i16 %219 to i32
  %221 = ashr i32 %220, 6
  %222 = and i32 %221, 63
  %223 = add nsw i32 128, %222
  %224 = icmp ne i32 %218, %223
  br i1 %224, label %225, label %226

225:                                              ; preds = %211
  store i32 -1, ptr %5, align 4
  br label %251

226:                                              ; preds = %211
  %227 = load ptr, ptr %6, align 8
  %228 = load i32, ptr %10, align 4
  %229 = add nsw i32 %228, 1
  store i32 %229, ptr %10, align 4
  %230 = sext i32 %228 to i64
  %231 = getelementptr inbounds i8, ptr %227, i64 %230
  %232 = load i8, ptr %231, align 1
  %233 = zext i8 %232 to i32
  %234 = load i16, ptr %11, align 2
  %235 = zext i16 %234 to i32
  %236 = and i32 %235, 63
  %237 = add nsw i32 128, %236
  %238 = icmp ne i32 %233, %237
  br i1 %238, label %239, label %240

239:                                              ; preds = %226
  store i32 -1, ptr %5, align 4
  br label %251

240:                                              ; preds = %226
  br label %241

241:                                              ; preds = %240
  br label %242

242:                                              ; preds = %241, %177
  br label %243

243:                                              ; preds = %242, %88
  br label %244

244:                                              ; preds = %243, %49
  %245 = load ptr, ptr %8, align 8
  %246 = getelementptr inbounds i8, ptr %245, i64 2
  store ptr %246, ptr %8, align 8
  %247 = load i32, ptr %9, align 4
  %248 = sub nsw i32 %247, 2
  store i32 %248, ptr %9, align 4
  br label %14, !llvm.loop !47

249:                                              ; preds = %14
  %250 = load i32, ptr %10, align 4
  store i32 %250, ptr %5, align 4
  br label %251

251:                                              ; preds = %249, %239, %225, %210, %196, %190, %176, %163, %149, %135, %113, %87, %73, %59, %48, %36
  %252 = load i32, ptr %5, align 4
  ret i32 %252
}