; Function Attrs: mustprogress nofree norecurse nosync nounwind willreturn memory(argmem: read) uwtable
define internal fastcc noundef range(i32 -2147483647, -2147483648) i32 @_ZL42stbtt__CompareUTF8toUTF16_bigendian_prefixPKhiS0_i(ptr noundef readonly captures(none) %0, i32 noundef %1, ptr noundef readonly captures(none) %2, i32 noundef %3) unnamed_addr #0 {
  %.not84 = icmp eq i32 %3, 0
  br i1 %.not84, label %._crit_edge, label %.lr.ph

.lr.ph:                                           ; preds = %4, %107
  %.06187 = phi ptr [ %108, %107 ], [ %2, %4 ]
  %.06286 = phi i32 [ %109, %107 ], [ %3, %4 ]
  %.06485 = phi i32 [ %.165, %107 ], [ 0, %4 ]
  %5 = load i8, ptr %.06187, align 1
  %6 = zext i8 %5 to i32
  %7 = shl nuw nsw i32 %6, 8
  %8 = getelementptr inbounds nuw i8, ptr %.06187, i64 1
  %9 = load i8, ptr %8, align 1
  %10 = zext i8 %9 to i32
  %11 = or disjoint i32 %7, %10
  %12 = icmp samesign ult i32 %11, 128
  br i1 %12, label %13, label %20

13:                                               ; preds = %.lr.ph
  %.not81 = icmp slt i32 %.06485, %1
  br i1 %.not81, label %14, label %._crit_edge

14:                                               ; preds = %13
  %15 = add nsw i32 %.06485, 1
  %16 = sext i32 %.06485 to i64
  %17 = getelementptr inbounds i8, ptr %0, i64 %16
  %18 = load i8, ptr %17, align 1
  %19 = zext i8 %18 to i32
  %.not82 = icmp eq i32 %11, %19
  br i1 %.not82, label %107, label %._crit_edge

20:                                               ; preds = %.lr.ph
  %21 = icmp ult i8 %5, 8
  br i1 %21, label %22, label %39

22:                                               ; preds = %20
  %23 = add nsw i32 %.06485, 1
  %.not78 = icmp slt i32 %23, %1
  br i1 %.not78, label %24, label %._crit_edge

24:                                               ; preds = %22
  %25 = sext i32 %.06485 to i64
  %26 = getelementptr inbounds i8, ptr %0, i64 %25
  %27 = load i8, ptr %26, align 1
  %28 = zext i8 %27 to i32
  %29 = lshr i32 %11, 6
  %30 = or disjoint i32 %29, 192
  %.not79 = icmp eq i32 %30, %28
  br i1 %.not79, label %31, label %._crit_edge

31:                                               ; preds = %24
  %32 = add nsw i32 %.06485, 2
  %33 = sext i32 %23 to i64
  %34 = getelementptr inbounds i8, ptr %0, i64 %33
  %35 = load i8, ptr %34, align 1
  %36 = zext i8 %35 to i32
  %37 = and i32 %10, 63
  %38 = or disjoint i32 %37, 128
  %.not80 = icmp eq i32 %38, %36
  br i1 %.not80, label %107, label %._crit_edge

39:                                               ; preds = %20
  %40 = and i8 %5, -4
  %or.cond = icmp eq i8 %40, -40
  br i1 %or.cond, label %41, label %84

41:                                               ; preds = %39
  %42 = getelementptr inbounds nuw i8, ptr %.06187, i64 2
  %43 = add nsw i32 %.06485, 3
  %.not73 = icmp slt i32 %43, %1
  br i1 %.not73, label %44, label %._crit_edge

44:                                               ; preds = %41
  %45 = getelementptr inbounds nuw i8, ptr %.06187, i64 3
  %46 = load i8, ptr %45, align 1
  %47 = load i8, ptr %42, align 1
  %48 = zext i8 %47 to i32
  %49 = shl nuw nsw i32 %48, 8
  %50 = zext i8 %46 to i32
  %51 = or disjoint i32 %49, %50
  %52 = shl nuw nsw i32 %11, 10
  %53 = add nsw i32 %52, -56613888
  %54 = add nuw nsw i32 %53, %51
  %55 = sext i32 %.06485 to i64
  %56 = getelementptr inbounds i8, ptr %0, i64 %55
  %57 = load i8, ptr %56, align 1
  %58 = zext i8 %57 to i32
  %59 = lshr i32 %54, 18
  %60 = add nuw nsw i32 %59, 240
  %.not74 = icmp eq i32 %60, %58
  br i1 %.not74, label %61, label %._crit_edge

61:                                               ; preds = %44
  %62 = getelementptr i8, ptr %56, i64 1
  %63 = load i8, ptr %62, align 1
  %64 = zext i8 %63 to i32
  %65 = lshr i32 %54, 12
  %66 = and i32 %65, 63
  %67 = or disjoint i32 %66, 128
  %.not75 = icmp eq i32 %67, %64
  br i1 %.not75, label %68, label %._crit_edge

68:                                               ; preds = %61
  %69 = getelementptr i8, ptr %56, i64 2
  %70 = load i8, ptr %69, align 1
  %71 = zext i8 %70 to i32
  %72 = lshr i32 %54, 6
  %73 = and i32 %72, 63
  %74 = or disjoint i32 %73, 128
  %.not76 = icmp eq i32 %74, %71
  br i1 %.not76, label %75, label %._crit_edge

75:                                               ; preds = %68
  %76 = getelementptr i8, ptr %56, i64 3
  %77 = load i8, ptr %76, align 1
  %78 = zext i8 %77 to i32
  %79 = and i32 %50, 63
  %80 = or disjoint i32 %79, 128
  %.not77 = icmp eq i32 %80, %78
  br i1 %.not77, label %81, label %._crit_edge

81:                                               ; preds = %75
  %82 = add nsw i32 %.06485, 4
  %83 = add nsw i32 %.06286, -2
  br label %107

84:                                               ; preds = %39
  %or.cond5 = icmp ne i8 %40, -36
  %85 = add nsw i32 %.06485, 2
  %.not69 = icmp slt i32 %85, %1
  %or.cond83 = select i1 %or.cond5, i1 %.not69, i1 false
  br i1 %or.cond83, label %86, label %._crit_edge

86:                                               ; preds = %84
  %87 = sext i32 %.06485 to i64
  %88 = getelementptr inbounds i8, ptr %0, i64 %87
  %89 = load i8, ptr %88, align 1
  %90 = zext i8 %89 to i32
  %91 = lshr i32 %6, 4
  %92 = or disjoint i32 %91, 224
  %.not70 = icmp eq i32 %92, %90
  br i1 %.not70, label %93, label %._crit_edge

93:                                               ; preds = %86
  %94 = getelementptr i8, ptr %88, i64 1
  %95 = load i8, ptr %94, align 1
  %96 = zext i8 %95 to i32
  %97 = lshr i32 %11, 6
  %98 = and i32 %97, 63
  %99 = or disjoint i32 %98, 128
  %.not71 = icmp eq i32 %99, %96
  br i1 %.not71, label %100, label %._crit_edge

100:                                              ; preds = %93
  %101 = add nsw i32 %.06485, 3
  %102 = getelementptr i8, ptr %88, i64 2
  %103 = load i8, ptr %102, align 1
  %104 = zext i8 %103 to i32
  %105 = and i32 %10, 63
  %106 = or disjoint i32 %105, 128
  %.not72 = icmp eq i32 %106, %104
  br i1 %.not72, label %107, label %._crit_edge

107:                                              ; preds = %31, %100, %81, %14
  %.165 = phi i32 [ %15, %14 ], [ %32, %31 ], [ %82, %81 ], [ %101, %100 ]
  %.163 = phi i32 [ %.06286, %14 ], [ %.06286, %31 ], [ %83, %81 ], [ %.06286, %100 ]
  %.1 = phi ptr [ %.06187, %14 ], [ %.06187, %31 ], [ %42, %81 ], [ %.06187, %100 ]
  %108 = getelementptr inbounds nuw i8, ptr %.1, i64 2
  %109 = add nsw i32 %.163, -2
  %.not = icmp eq i32 %109, 0
  br i1 %.not, label %._crit_edge, label %.lr.ph, !llvm.loop !58

._crit_edge:                                      ; preds = %13, %14, %22, %24, %31, %41, %44, %61, %68, %75, %84, %86, %93, %100, %107, %4
  %.0 = phi i32 [ 0, %4 ], [ %.165, %107 ], [ -1, %100 ], [ -1, %93 ], [ -1, %86 ], [ -1, %84 ], [ -1, %75 ], [ -1, %68 ], [ -1, %61 ], [ -1, %44 ], [ -1, %41 ], [ -1, %31 ], [ -1, %24 ], [ -1, %22 ], [ -1, %14 ], [ -1, %13 ]
  ret i32 %.0
}